target datalayout = "e-m:e-p270:32:32-p271:32:32-p272:64:64-i64:64-i128:128-f80:128-n8:16:32:64-S128"
target triple = "x86_64-pc-linux-gnu"

%struct.lean_object = type { i32, i32 }
%struct.lean_ctor_object = type { %struct.lean_object, [0 x ptr] }

; Function Attrs: inlinehint nounwind uwtable
define internal zeroext i1 @lean_is_st(ptr noundef %0) #0 {
  %2 = alloca ptr, align 8
  store ptr %0, ptr %2, align 8, !tbaa !8
  %3 = load ptr, ptr %2, align 8, !tbaa !8
  %4 = getelementptr inbounds nuw %struct.lean_object, ptr %3, i32 0, i32 0
  %5 = load i32, ptr %4, align 4, !tbaa !17
  %6 = icmp sgt i32 %5, 0
  ret i1 %6
}

; Function Attrs: inlinehint nounwind uwtable
define internal ptr @lean_to_ctor(ptr noundef %0) #0 {
  %2 = alloca ptr, align 8
  store ptr %0, ptr %2, align 8, !tbaa !8
  %3 = load ptr, ptr %2, align 8, !tbaa !8
  ret ptr %3
}

; Function Attrs: alwaysinline nounwind uwtable
define internal void @lean_dec_ref(ptr noundef %0) #1 {
  %2 = alloca ptr, align 8
  store ptr %0, ptr %2, align 8, !tbaa !8
  %3 = load ptr, ptr %2, align 8, !tbaa !8
  %4 = getelementptr inbounds nuw %struct.lean_object, ptr %3, i32 0, i32 0
  %5 = load i32, ptr %4, align 4, !tbaa !17
  %6 = icmp sgt i32 %5, 1
  %7 = zext i1 %6 to i32
  %8 = sext i32 %7 to i64
  %9 = call i64 @llvm.expect.i64(i64 %8, i64 1)
  %10 = icmp ne i64 %9, 0
  br i1 %10, label %11, label %16

11:                                               ; preds = %1
  %12 = load ptr, ptr %2, align 8, !tbaa !8
  %13 = getelementptr inbounds nuw %struct.lean_object, ptr %12, i32 0, i32 0
  %14 = load i32, ptr %13, align 4, !tbaa !17
  %15 = add i32 %14, -1
  store i32 %15, ptr %13, align 4, !tbaa !17
  br label %24

16:                                               ; preds = %1
  %17 = load ptr, ptr %2, align 8, !tbaa !8
  %18 = getelementptr inbounds nuw %struct.lean_object, ptr %17, i32 0, i32 0
  %19 = load i32, ptr %18, align 4, !tbaa !17
  %20 = icmp ne i32 %19, 0
  br i1 %20, label %21, label %23

21:                                               ; preds = %16
  %22 = load ptr, ptr %2, align 8, !tbaa !8
  call void @lean_dec_ref_cold(ptr noundef %22)
  br label %23

23:                                               ; preds = %21, %16
  br label %24

24:                                               ; preds = %23, %11
  ret void
}

; Function Attrs: inlinehint nounwind uwtable
define internal void @lean_inc_ref(ptr noundef %0) #0 {
  %2 = alloca ptr, align 8
  store ptr %0, ptr %2, align 8, !tbaa !8
  %3 = load ptr, ptr %2, align 8, !tbaa !8
  %4 = call zeroext i1 @lean_is_st(ptr noundef %3)
  %5 = zext i1 %4 to i64
  %6 = call i64 @llvm.expect.i64(i64 %5, i64 1)
  %7 = icmp ne i64 %6, 0
  br i1 %7, label %8, label %13

8:                                                ; preds = %1
  %9 = load ptr, ptr %2, align 8, !tbaa !8
  %10 = getelementptr inbounds nuw %struct.lean_object, ptr %9, i32 0, i32 0
  %11 = load i32, ptr %10, align 4, !tbaa !17
  %12 = add i32 %11, 1
  store i32 %12, ptr %10, align 4, !tbaa !17
  br label %21

13:                                               ; preds = %1
  %14 = load ptr, ptr %2, align 8, !tbaa !8
  %15 = getelementptr inbounds nuw %struct.lean_object, ptr %14, i32 0, i32 0
  %16 = load i32, ptr %15, align 4, !tbaa !17
  %17 = icmp ne i32 %16, 0
  br i1 %17, label %18, label %20

18:                                               ; preds = %13
  %19 = load ptr, ptr %2, align 8, !tbaa !8
  call void @lean_inc_ref_cold(ptr noundef %19)
  br label %20

20:                                               ; preds = %18, %13
  br label %21

21:                                               ; preds = %20, %8
  ret void
}

; Function Attrs: alwaysinline nounwind uwtable
define internal zeroext i1 @lean_is_scalar(ptr noundef %0) #1 {
  %2 = alloca ptr, align 8
  store ptr %0, ptr %2, align 8, !tbaa !8
  %3 = load ptr, ptr %2, align 8, !tbaa !8
  %4 = ptrtoint ptr %3 to i64
  %5 = and i64 %4, 1
  %6 = icmp eq i64 %5, 1
  ret i1 %6
}

; Function Attrs: inlinehint nounwind uwtable
define internal ptr @lean_ctor_obj_cptr(ptr noundef %0) #0 {
  %2 = alloca ptr, align 8
  store ptr %0, ptr %2, align 8, !tbaa !8
  %3 = load ptr, ptr %2, align 8, !tbaa !8
  %4 = call ptr @lean_to_ctor(ptr noundef %3)
  %5 = getelementptr inbounds nuw %struct.lean_ctor_object, ptr %4, i32 0, i32 1
  %6 = getelementptr inbounds [0 x ptr], ptr %5, i64 0, i64 0
  ret ptr %6
}

; Function Attrs: alwaysinline nounwind uwtable
define internal void @lean_dec(ptr noundef %0) #1 {
  %2 = alloca ptr, align 8
  store ptr %0, ptr %2, align 8, !tbaa !8
  %3 = load ptr, ptr %2, align 8, !tbaa !8
  %4 = call zeroext i1 @lean_is_scalar(ptr noundef %3)
  br i1 %4, label %7, label %5

5:                                                ; preds = %1
  %6 = load ptr, ptr %2, align 8, !tbaa !8
  call void @lean_dec_ref(ptr noundef %6)
  br label %7

7:                                                ; preds = %5, %1
  ret void
}

; Function Attrs: inlinehint nounwind uwtable
define internal zeroext i8 @lean_ctor_get_uint8(ptr noundef %0, i32 noundef %1) #0 {
  %3 = alloca ptr, align 8
  %4 = alloca i32, align 4
  store ptr %0, ptr %3, align 8, !tbaa !8
  store i32 %1, ptr %4, align 4, !tbaa !13
  %5 = load ptr, ptr %3, align 8, !tbaa !8
  %6 = call ptr @lean_ctor_obj_cptr(ptr noundef %5)
  %7 = load i32, ptr %4, align 4, !tbaa !13
  %8 = zext i32 %7 to i64
  %9 = getelementptr inbounds nuw i8, ptr %6, i64 %8
  %10 = load i8, ptr %9, align 1, !tbaa !12
  ret i8 %10
}

; Function Attrs: alwaysinline nounwind uwtable
define internal void @lean_inc(ptr noundef %0) #1 {
  %2 = alloca ptr, align 8
  store ptr %0, ptr %2, align 8, !tbaa !8
  %3 = load ptr, ptr %2, align 8, !tbaa !8
  %4 = call zeroext i1 @lean_is_scalar(ptr noundef %3)
  br i1 %4, label %7, label %5

5:                                                ; preds = %1
  %6 = load ptr, ptr %2, align 8, !tbaa !8
  call void @lean_inc_ref(ptr noundef %6)
  br label %7

7:                                                ; preds = %5, %1
  ret void
}

; Function Attrs: inlinehint nounwind uwtable
define internal ptr @lean_ctor_get(ptr noundef %0, i32 noundef %1) #0 {
  %3 = alloca ptr, align 8
  %4 = alloca i32, align 4
  store ptr %0, ptr %3, align 8, !tbaa !8
  store i32 %1, ptr %4, align 4, !tbaa !13
  %5 = load ptr, ptr %3, align 8, !tbaa !8
  %6 = call ptr @lean_ctor_obj_cptr(ptr noundef %5)
  %7 = load i32, ptr %4, align 4, !tbaa !13
  %8 = zext i32 %7 to i64
  %9 = getelementptr inbounds nuw ptr, ptr %6, i64 %8
  %10 = load ptr, ptr %9, align 8, !tbaa !8
  ret ptr %10
}

; Function Attrs: nounwind uwtable
define ptr @l_Lean_Meta_Grind_Arith_CommRing_propagateEq(ptr noundef %0, ptr noundef %1, ptr noundef %2, ptr noundef %3, ptr noundef %4, ptr noundef %5, ptr noundef %6, ptr noundef %7, ptr noundef %8, ptr noundef %9, ptr noundef %10, ptr noundef %11, ptr noundef %12, ptr noundef %13, ptr noundef %14) #2 {
  %16 = alloca ptr, align 8
  %17 = alloca ptr, align 8
  %18 = alloca ptr, align 8
  %19 = alloca ptr, align 8
  %20 = alloca ptr, align 8
  %21 = alloca ptr, align 8
  %22 = alloca ptr, align 8
  %23 = alloca ptr, align 8
  %24 = alloca ptr, align 8
  %25 = alloca ptr, align 8
  %26 = alloca ptr, align 8
  %27 = alloca ptr, align 8
  %28 = alloca ptr, align 8
  %29 = alloca ptr, align 8
  %30 = alloca ptr, align 8
  %31 = alloca ptr, align 8
  %32 = alloca ptr, align 8
  %33 = alloca ptr, align 8
  %34 = alloca i8, align 1
  %35 = alloca ptr, align 8
  %36 = alloca ptr, align 8
  %37 = alloca i32, align 4
  %38 = alloca ptr, align 8
  %39 = alloca ptr, align 8
  store ptr %0, ptr %17, align 8, !tbaa !8
  store ptr %1, ptr %18, align 8, !tbaa !8
  store ptr %2, ptr %19, align 8, !tbaa !8
  store ptr %3, ptr %20, align 8, !tbaa !8
  store ptr %4, ptr %21, align 8, !tbaa !8
  store ptr %5, ptr %22, align 8, !tbaa !8
  store ptr %6, ptr %23, align 8, !tbaa !8
  store ptr %7, ptr %24, align 8, !tbaa !8
  store ptr %8, ptr %25, align 8, !tbaa !8
  store ptr %9, ptr %26, align 8, !tbaa !8
  store ptr %10, ptr %27, align 8, !tbaa !8
  store ptr %11, ptr %28, align 8, !tbaa !8
  store ptr %12, ptr %29, align 8, !tbaa !8
  store ptr %13, ptr %30, align 8, !tbaa !8
  store ptr %14, ptr %31, align 8, !tbaa !8
  br label %40

40:                                               ; preds = %15
  call void @llvm.lifetime.start.p0(i64 8, ptr %32) #7
  call void @llvm.lifetime.start.p0(i64 8, ptr %33) #7
  call void @llvm.lifetime.start.p0(i64 1, ptr %34) #7
  %41 = load ptr, ptr %25, align 8, !tbaa !8
  %42 = load ptr, ptr %26, align 8, !tbaa !8
  %43 = load ptr, ptr %27, align 8, !tbaa !8
  %44 = load ptr, ptr %28, align 8, !tbaa !8
  %45 = load ptr, ptr %29, align 8, !tbaa !8
  %46 = load ptr, ptr %30, align 8, !tbaa !8
  %47 = load ptr, ptr %31, align 8, !tbaa !8
  %48 = call ptr @l_Lean_Meta_Grind_getConfig___rarg(ptr noundef %41, ptr noundef %42, ptr noundef %43, ptr noundef %44, ptr noundef %45, ptr noundef %46, ptr noundef %47)
  store ptr %48, ptr %32, align 8, !tbaa !8
  %49 = load ptr, ptr %32, align 8, !tbaa !8
  %50 = call ptr @lean_ctor_get(ptr noundef %49, i32 noundef 0)
  store ptr %50, ptr %33, align 8, !tbaa !8
  %51 = load ptr, ptr %33, align 8, !tbaa !8
  call void @lean_inc(ptr noundef %51)
  %52 = load ptr, ptr %33, align 8, !tbaa !8
  %53 = call zeroext i8 @lean_ctor_get_uint8(ptr noundef %52, i32 noundef 74)
  store i8 %53, ptr %34, align 1, !tbaa !12
  %54 = load ptr, ptr %33, align 8, !tbaa !8
  call void @lean_dec(ptr noundef %54)
  %55 = load i8, ptr %34, align 1, !tbaa !12
  %56 = zext i8 %55 to i32
  %57 = icmp eq i32 %56, 0
  br i1 %57, label %58, label %80

58:                                               ; preds = %40
  call void @llvm.lifetime.start.p0(i64 8, ptr %35) #7
  call void @llvm.lifetime.start.p0(i64 8, ptr %36) #7
  %59 = load ptr, ptr %32, align 8, !tbaa !8
  %60 = call ptr @lean_ctor_get(ptr noundef %59, i32 noundef 1)
  store ptr %60, ptr %35, align 8, !tbaa !8
  %61 = load ptr, ptr %35, align 8, !tbaa !8
  call void @lean_inc(ptr noundef %61)
  %62 = load ptr, ptr %32, align 8, !tbaa !8
  call void @lean_dec(ptr noundef %62)
  %63 = load ptr, ptr %17, align 8, !tbaa !8
  %64 = load ptr, ptr %18, align 8, !tbaa !8
  %65 = load ptr, ptr %19, align 8, !tbaa !8
  %66 = load ptr, ptr %20, align 8, !tbaa !8
  %67 = load ptr, ptr %21, align 8, !tbaa !8
  %68 = load ptr, ptr %22, align 8, !tbaa !8
  %69 = load ptr, ptr %23, align 8, !tbaa !8
  %70 = load ptr, ptr %24, align 8, !tbaa !8
  %71 = load ptr, ptr %25, align 8, !tbaa !8
  %72 = load ptr, ptr %26, align 8, !tbaa !8
  %73 = load ptr, ptr %27, align 8, !tbaa !8
  %74 = load ptr, ptr %28, align 8, !tbaa !8
  %75 = load ptr, ptr %29, align 8, !tbaa !8
  %76 = load ptr, ptr %30, align 8, !tbaa !8
  %77 = load ptr, ptr %35, align 8, !tbaa !8
  %78 = call ptr @l_Lean_Meta_Grind_Arith_CommRing_Stepwise_propagateEq(ptr noundef %63, ptr noundef %64, ptr noundef %65, ptr noundef %66, ptr noundef %67, ptr noundef %68, ptr noundef %69, ptr noundef %70, ptr noundef %71, ptr noundef %72, ptr noundef %73, ptr noundef %74, ptr noundef %75, ptr noundef %76, ptr noundef %77)
  store ptr %78, ptr %36, align 8, !tbaa !8
  %79 = load ptr, ptr %36, align 8, !tbaa !8
  store ptr %79, ptr %16, align 8
  store i32 1, ptr %37, align 4
  call void @llvm.lifetime.end.p0(i64 8, ptr %36) #7
  call void @llvm.lifetime.end.p0(i64 8, ptr %35) #7
  br label %102

80:                                               ; preds = %40
  call void @llvm.lifetime.start.p0(i64 8, ptr %38) #7
  call void @llvm.lifetime.start.p0(i64 8, ptr %39) #7
  %81 = load ptr, ptr %32, align 8, !tbaa !8
  %82 = call ptr @lean_ctor_get(ptr noundef %81, i32 noundef 1)
  store ptr %82, ptr %38, align 8, !tbaa !8
  %83 = load ptr, ptr %38, align 8, !tbaa !8
  call void @lean_inc(ptr noundef %83)
  %84 = load ptr, ptr %32, align 8, !tbaa !8
  call void @lean_dec(ptr noundef %84)
  %85 = load ptr, ptr %17, align 8, !tbaa !8
  %86 = load ptr, ptr %18, align 8, !tbaa !8
  %87 = load ptr, ptr %19, align 8, !tbaa !8
  %88 = load ptr, ptr %20, align 8, !tbaa !8
  %89 = load ptr, ptr %21, align 8, !tbaa !8
  %90 = load ptr, ptr %22, align 8, !tbaa !8
  %91 = load ptr, ptr %23, align 8, !tbaa !8
  %92 = load ptr, ptr %24, align 8, !tbaa !8
  %93 = load ptr, ptr %25, align 8, !tbaa !8
  %94 = load ptr, ptr %26, align 8, !tbaa !8
  %95 = load ptr, ptr %27, align 8, !tbaa !8
  %96 = load ptr, ptr %28, align 8, !tbaa !8
  %97 = load ptr, ptr %29, align 8, !tbaa !8
  %98 = load ptr, ptr %30, align 8, !tbaa !8
  %99 = load ptr, ptr %38, align 8, !tbaa !8
  %100 = call ptr @l_Lean_Meta_Grind_Arith_CommRing_Null_propagateEq(ptr noundef %85, ptr noundef %86, ptr noundef %87, ptr noundef %88, ptr noundef %89, ptr noundef %90, ptr noundef %91, ptr noundef %92, ptr noundef %93, ptr noundef %94, ptr noundef %95, ptr noundef %96, ptr noundef %97, ptr noundef %98, ptr noundef %99)
  store ptr %100, ptr %39, align 8, !tbaa !8
  %101 = load ptr, ptr %39, align 8, !tbaa !8
  store ptr %101, ptr %16, align 8
  store i32 1, ptr %37, align 4
  call void @llvm.lifetime.end.p0(i64 8, ptr %39) #7
  call void @llvm.lifetime.end.p0(i64 8, ptr %38) #7
  br label %102

102:                                              ; preds = %80, %58
  call void @llvm.lifetime.end.p0(i64 1, ptr %34) #7
  call void @llvm.lifetime.end.p0(i64 8, ptr %33) #7
  call void @llvm.lifetime.end.p0(i64 8, ptr %32) #7
  %103 = load ptr, ptr %16, align 8
  ret ptr %103
}