; Function Attrs: nounwind uwtable
define ptr @l_Lean_Meta_Grind_Arith_CommRing_propagateEq(ptr noundef %0, ptr noundef %1, ptr noundef %2, ptr noundef %3, ptr noundef %4, ptr noundef %5, ptr noundef %6, ptr noundef %7, ptr noundef %8, ptr noundef %9, ptr noundef %10, ptr noundef %11, ptr noundef %12, ptr noundef %13, ptr noundef %14) local_unnamed_addr #1 {
  %16 = tail call ptr @l_Lean_Meta_Grind_getConfig___rarg(ptr noundef %8, ptr noundef %9, ptr noundef %10, ptr noundef %11, ptr noundef %12, ptr noundef %13, ptr noundef %14) #6
  %17 = getelementptr inbounds nuw i8, ptr %16, i64 8
  %18 = load ptr, ptr %17, align 8, !tbaa !11
  %19 = ptrtoint ptr %18 to i64
  %20 = and i64 %19, 1
  %.not = icmp eq i64 %20, 0
  br i1 %.not, label %21, label %lean_inc.exit51

21:                                               ; preds = %15
  %.val.i = load i32, ptr %18, align 4, !tbaa !6
  %22 = icmp sgt i32 %.val.i, 0
  br i1 %22, label %23, label %25, !prof !5

23:                                               ; preds = %21
  %24 = add nuw i32 %.val.i, 1
  store i32 %24, ptr %18, align 4, !tbaa !6
  br label %29

25:                                               ; preds = %21
  %.not.i58 = icmp eq i32 %.val.i, 0
  br i1 %.not.i58, label %.thread71, label %27

.thread71:                                        ; preds = %25
  %26 = getelementptr i8, ptr %18, i64 82
  %.val6568 = load i8, ptr %26, align 1, !tbaa !22
  br label %lean_dec.exit53

27:                                               ; preds = %25
  tail call void @lean_inc_ref_cold(ptr noundef nonnull %18) #6
  %.pr = load i32, ptr %18, align 4, !tbaa !6
  br label %29

lean_inc.exit51:                                  ; preds = %15
  %28 = getelementptr i8, ptr %18, i64 82
  %.val = load i8, ptr %28, align 1, !tbaa !22
  br label %lean_dec.exit53

29:                                               ; preds = %27, %23
  %30 = phi i32 [ %.pr, %27 ], [ %24, %23 ]
  %31 = getelementptr i8, ptr %18, i64 82
  %.val65 = load i8, ptr %31, align 1, !tbaa !22
  %32 = icmp sgt i32 %30, 1
  br i1 %32, label %33, label %35, !prof !19

33:                                               ; preds = %29
  %34 = add nsw i32 %30, -1
  store i32 %34, ptr %18, align 4, !tbaa !6
  br label %lean_dec.exit53

35:                                               ; preds = %29
  %.not.i = icmp eq i32 %30, 0
  br i1 %.not.i, label %lean_dec.exit53, label %36

36:                                               ; preds = %35
  tail call void @lean_dec_ref_cold(ptr noundef nonnull %18) #6
  br label %lean_dec.exit53

lean_dec.exit53:                                  ; preds = %36, %35, %33, %.thread71, %lean_inc.exit51
  %.val67 = phi i8 [ %.val, %lean_inc.exit51 ], [ %.val65, %33 ], [ %.val65, %35 ], [ %.val65, %36 ], [ %.val6568, %.thread71 ]
  %37 = icmp eq i8 %.val67, 0
  %38 = getelementptr inbounds nuw i8, ptr %16, i64 16
  %39 = load ptr, ptr %38, align 8, !tbaa !11
  %40 = ptrtoint ptr %39 to i64
  %41 = and i64 %40, 1
  %.not76 = icmp eq i64 %41, 0
  br i1 %37, label %42, label %59

42:                                               ; preds = %lean_dec.exit53
  br i1 %.not76, label %43, label %lean_inc.exit50

43:                                               ; preds = %42
  %.val.i59 = load i32, ptr %39, align 4, !tbaa !6
  %44 = icmp sgt i32 %.val.i59, 0
  br i1 %44, label %45, label %47, !prof !5

45:                                               ; preds = %43
  %46 = add nuw i32 %.val.i59, 1
  store i32 %46, ptr %39, align 4, !tbaa !6
  br label %lean_inc.exit50

47:                                               ; preds = %43
  %.not.i60 = icmp eq i32 %.val.i59, 0
  br i1 %.not.i60, label %lean_inc.exit50, label %48

48:                                               ; preds = %47
  tail call void @lean_inc_ref_cold(ptr noundef nonnull %39) #6
  br label %lean_inc.exit50

lean_inc.exit50:                                  ; preds = %48, %47, %45, %42
  %49 = ptrtoint ptr %16 to i64
  %50 = and i64 %49, 1
  %.not77 = icmp eq i64 %50, 0
  br i1 %.not77, label %51, label %lean_dec.exit52

51:                                               ; preds = %lean_inc.exit50
  %52 = load i32, ptr %16, align 4, !tbaa !6
  %53 = icmp sgt i32 %52, 1
  br i1 %53, label %54, label %56, !prof !5

54:                                               ; preds = %51
  %55 = add nsw i32 %52, -1
  store i32 %55, ptr %16, align 4, !tbaa !6
  br label %lean_dec.exit52

56:                                               ; preds = %51
  %.not.i54 = icmp eq i32 %52, 0
  br i1 %.not.i54, label %lean_dec.exit52, label %57

57:                                               ; preds = %56
  tail call void @lean_dec_ref_cold(ptr noundef nonnull %16) #6
  br label %lean_dec.exit52

lean_dec.exit52:                                  ; preds = %57, %56, %54, %lean_inc.exit50
  %58 = tail call ptr @l_Lean_Meta_Grind_Arith_CommRing_Stepwise_propagateEq(ptr noundef %0, ptr noundef %1, ptr noundef %2, ptr noundef %3, ptr noundef %4, ptr noundef %5, ptr noundef %6, ptr noundef %7, ptr noundef %8, ptr noundef %9, ptr noundef %10, ptr noundef %11, ptr noundef %12, ptr noundef %13, ptr noundef %39)
  br label %76

59:                                               ; preds = %lean_dec.exit53
  br i1 %.not76, label %60, label %lean_inc.exit

60:                                               ; preds = %59
  %.val.i62 = load i32, ptr %39, align 4, !tbaa !6
  %61 = icmp sgt i32 %.val.i62, 0
  br i1 %61, label %62, label %64, !prof !5

62:                                               ; preds = %60
  %63 = add nuw i32 %.val.i62, 1
  store i32 %63, ptr %39, align 4, !tbaa !6
  br label %lean_inc.exit

64:                                               ; preds = %60
  %.not.i63 = icmp eq i32 %.val.i62, 0
  br i1 %.not.i63, label %lean_inc.exit, label %65

65:                                               ; preds = %64
  tail call void @lean_inc_ref_cold(ptr noundef nonnull %39) #6
  br label %lean_inc.exit

lean_inc.exit:                                    ; preds = %65, %64, %62, %59
  %66 = ptrtoint ptr %16 to i64
  %67 = and i64 %66, 1
  %.not75 = icmp eq i64 %67, 0
  br i1 %.not75, label %68, label %lean_dec.exit

68:                                               ; preds = %lean_inc.exit
  %69 = load i32, ptr %16, align 4, !tbaa !6
  %70 = icmp sgt i32 %69, 1
  br i1 %70, label %71, label %73, !prof !5

71:                                               ; preds = %68
  %72 = add nsw i32 %69, -1
  store i32 %72, ptr %16, align 4, !tbaa !6
  br label %lean_dec.exit

73:                                               ; preds = %68
  %.not.i56 = icmp eq i32 %69, 0
  br i1 %.not.i56, label %lean_dec.exit, label %74

74:                                               ; preds = %73
  tail call void @lean_dec_ref_cold(ptr noundef nonnull %16) #6
  br label %lean_dec.exit

lean_dec.exit:                                    ; preds = %74, %73, %71, %lean_inc.exit
  %75 = tail call ptr @l_Lean_Meta_Grind_Arith_CommRing_Null_propagateEq(ptr noundef %0, ptr noundef %1, ptr noundef %2, ptr noundef %3, ptr noundef %4, ptr noundef %5, ptr noundef %6, ptr noundef %7, ptr noundef %8, ptr noundef %9, ptr noundef %10, ptr noundef %11, ptr noundef %12, ptr noundef %13, ptr noundef %39)
  br label %76

76:                                               ; preds = %lean_dec.exit, %lean_dec.exit52
  %.0 = phi ptr [ %58, %lean_dec.exit52 ], [ %75, %lean_dec.exit ]
  ret ptr %.0
}